target datalayout = "e-m:e-p270:32:32-p271:32:32-p272:64:64-i64:64-i128:128-f80:128-n8:16:32:64-S128"
target triple = "x86_64-unknown-linux-gnu"

%struct.PostcopyBlocktimeContext = type { ptr, ptr, i32, ptr, i32, i32, i64, %struct.Notifier }
%struct.Notifier = type { ptr, %struct.anon.1 }
%struct.anon.1 = type { ptr, ptr }

; Function Attrs: nounwind sspstrong uwtable
define internal void @destroy_blocktime_context(ptr noundef %ctx) #0 {
entry:
  %ctx.addr = alloca ptr, align 8
  store ptr %ctx, ptr %ctx.addr, align 8
  %0 = load ptr, ptr %ctx.addr, align 8
  %page_fault_vcpu_time = getelementptr inbounds %struct.PostcopyBlocktimeContext, ptr %0, i32 0, i32 0
  %1 = load ptr, ptr %page_fault_vcpu_time, align 8
  call void @g_free(ptr noundef %1)
  %2 = load ptr, ptr %ctx.addr, align 8
  %vcpu_addr = getelementptr inbounds %struct.PostcopyBlocktimeContext, ptr %2, i32 0, i32 1
  %3 = load ptr, ptr %vcpu_addr, align 8
  call void @g_free(ptr noundef %3)
  %4 = load ptr, ptr %ctx.addr, align 8
  %vcpu_blocktime = getelementptr inbounds %struct.PostcopyBlocktimeContext, ptr %4, i32 0, i32 3
  %5 = load ptr, ptr %vcpu_blocktime, align 8
  call void @g_free(ptr noundef %5)
  %6 = load ptr, ptr %ctx.addr, align 8
  call void @g_free(ptr noundef %6)
  ret void
}

; Function Attrs: nounwind sspstrong uwtable
define internal void @migration_exit_cb(ptr noundef %n, ptr noundef %data) #0 {
entry:
  %n.addr = alloca ptr, align 8
  %data.addr = alloca ptr, align 8
  %ctx = alloca ptr, align 8
  %__mptr = alloca ptr, align 8
  %tmp = alloca ptr, align 8
  store ptr %n, ptr %n.addr, align 8
  store ptr %data, ptr %data.addr, align 8
  %0 = load ptr, ptr %n.addr, align 8
  store ptr %0, ptr %__mptr, align 8
  %1 = load ptr, ptr %__mptr, align 8
  %add.ptr = getelementptr i8, ptr %1, i64 -48
  store ptr %add.ptr, ptr %tmp, align 8
  %2 = load ptr, ptr %tmp, align 8
  store ptr %2, ptr %ctx, align 8
  %3 = load ptr, ptr %ctx, align 8
  call void @destroy_blocktime_context(ptr noundef %3)
  ret void
}