; Function Attrs: nounwind sspstrong uwtable
define internal void @migration_exit_cb(ptr noundef %n, ptr readnone captures(none) %data) #0 {
entry:
  %add.ptr = getelementptr i8, ptr %n, i64 -48
  %0 = load ptr, ptr %add.ptr, align 8
  tail call void @g_free(ptr noundef %0) #16
  %vcpu_addr.i = getelementptr i8, ptr %n, i64 -40
  %1 = load ptr, ptr %vcpu_addr.i, align 8
  tail call void @g_free(ptr noundef %1) #16
  %vcpu_blocktime.i = getelementptr i8, ptr %n, i64 -24
  %2 = load ptr, ptr %vcpu_blocktime.i, align 8
  tail call void @g_free(ptr noundef %2) #16
  tail call void @g_free(ptr noundef nonnull %add.ptr) #16
  ret void
}